target datalayout = "e-m:e-p270:32:32-p271:32:32-p272:64:64-i64:64-i128:128-f80:128-n8:16:32:64-S128"
target triple = "x86_64-pc-linux-gnu"

%"class.std::_Function_base" = type { %"union.std::_Any_data", ptr }
%"union.std::_Any_data" = type { %"union.std::_Nocopy_types" }
%"union.std::_Nocopy_types" = type { { i64, i64 } }
%class.anon = type { ptr, %"class.std::function.75" }
%"class.std::function.75" = type { %"class.std::_Function_base", ptr }
%"struct.std::thread::_State_impl" = type { %"struct.std::thread::_State", %"struct.std::thread::_Invoker" }
%"struct.std::thread::_State" = type { ptr }
%"struct.std::thread::_Invoker" = type { %"class.std::tuple.133" }
%"class.std::tuple.133" = type { %"struct.std::_Tuple_impl.134" }
%"struct.std::_Tuple_impl.134" = type { %"struct.std::_Head_base.135" }
%"struct.std::_Head_base.135" = type { %class.anon }

; Function Attrs: mustprogress nounwind uwtable
define linkonce_odr dso_local void @_ZNSt14_Function_baseD2Ev(ptr noundef nonnull align 8 dereferenceable(24) %0) unnamed_addr #4 comdat align 2 personality ptr @__gxx_personality_v0 {
  %2 = alloca ptr, align 8
  store ptr %0, ptr %2, align 8
  %3 = load ptr, ptr %2, align 8
  %4 = getelementptr inbounds %"class.std::_Function_base", ptr %3, i32 0, i32 1
  %5 = load ptr, ptr %4, align 8
  %6 = icmp ne ptr %5, null
  br i1 %6, label %7, label %14

7:                                                ; preds = %1
  %8 = getelementptr inbounds %"class.std::_Function_base", ptr %3, i32 0, i32 1
  %9 = load ptr, ptr %8, align 8
  %10 = getelementptr inbounds %"class.std::_Function_base", ptr %3, i32 0, i32 0
  %11 = getelementptr inbounds %"class.std::_Function_base", ptr %3, i32 0, i32 0
  %12 = invoke noundef zeroext i1 %9(ptr noundef nonnull align 8 dereferenceable(16) %10, ptr noundef nonnull align 8 dereferenceable(16) %11, i32 noundef 3)
          to label %13 unwind label %15

13:                                               ; preds = %7
  br label %14

14:                                               ; preds = %13, %1
  ret void

15:                                               ; preds = %7
  %16 = landingpad { ptr, i32 }
          catch ptr null
  %17 = extractvalue { ptr, i32 } %16, 0
  call void @__clang_call_terminate(ptr %17) #13
  unreachable
}

; Function Attrs: mustprogress nounwind uwtable
define linkonce_odr dso_local void @_ZNSt8functionIFvvEED2Ev(ptr noundef nonnull align 8 dereferenceable(32) %0) unnamed_addr #4 comdat align 2 {
  %2 = alloca ptr, align 8
  store ptr %0, ptr %2, align 8
  %3 = load ptr, ptr %2, align 8
  call void @_ZNSt14_Function_baseD2Ev(ptr noundef nonnull align 8 dereferenceable(24) %3) #12
  ret void
}

; Function Attrs: mustprogress nounwind uwtable
define internal void @_ZZN12_GLOBAL__N_14Impl23startProcessingMessagesERKSt8functionIFvvEEENUlvE_D2Ev(ptr noundef nonnull align 8 dereferenceable(40) %0) unnamed_addr #4 align 2 {
  %2 = alloca ptr, align 8
  store ptr %0, ptr %2, align 8
  %3 = load ptr, ptr %2, align 8
  %4 = getelementptr inbounds %class.anon, ptr %3, i32 0, i32 1
  call void @_ZNSt8functionIFvvEED2Ev(ptr noundef nonnull align 8 dereferenceable(32) %4) #12
  ret void
}

; Function Attrs: mustprogress nounwind uwtable
define internal void @_ZNSt10_Head_baseILm0EZN12_GLOBAL__N_14Impl23startProcessingMessagesERKSt8functionIFvvEEEUlvE_Lb0EED2Ev(ptr noundef nonnull align 8 dereferenceable(40) %0) unnamed_addr #4 align 2 {
  %2 = alloca ptr, align 8
  store ptr %0, ptr %2, align 8
  %3 = load ptr, ptr %2, align 8
  %4 = getelementptr inbounds %"struct.std::_Head_base.135", ptr %3, i32 0, i32 0
  call void @_ZZN12_GLOBAL__N_14Impl23startProcessingMessagesERKSt8functionIFvvEEENUlvE_D2Ev(ptr noundef nonnull align 8 dereferenceable(40) %4) #12
  ret void
}

; Function Attrs: mustprogress nounwind uwtable
define internal void @_ZNSt11_Tuple_implILm0EJZN12_GLOBAL__N_14Impl23startProcessingMessagesERKSt8functionIFvvEEEUlvE_EED2Ev(ptr noundef nonnull align 8 dereferenceable(40) %0) unnamed_addr #4 align 2 {
  %2 = alloca ptr, align 8
  store ptr %0, ptr %2, align 8
  %3 = load ptr, ptr %2, align 8
  call void @_ZNSt10_Head_baseILm0EZN12_GLOBAL__N_14Impl23startProcessingMessagesERKSt8functionIFvvEEEUlvE_Lb0EED2Ev(ptr noundef nonnull align 8 dereferenceable(40) %3) #12
  ret void
}

; Function Attrs: mustprogress nounwind uwtable
define internal void @_ZNSt5tupleIJZN12_GLOBAL__N_14Impl23startProcessingMessagesERKSt8functionIFvvEEEUlvE_EED2Ev(ptr noundef nonnull align 8 dereferenceable(40) %0) unnamed_addr #4 align 2 {
  %2 = alloca ptr, align 8
  store ptr %0, ptr %2, align 8
  %3 = load ptr, ptr %2, align 8
  call void @_ZNSt11_Tuple_implILm0EJZN12_GLOBAL__N_14Impl23startProcessingMessagesERKSt8functionIFvvEEEUlvE_EED2Ev(ptr noundef nonnull align 8 dereferenceable(40) %3) #12
  ret void
}

; Function Attrs: mustprogress nounwind uwtable
define internal void @_ZNSt6thread8_InvokerISt5tupleIJZN12_GLOBAL__N_14Impl23startProcessingMessagesERKSt8functionIFvvEEEUlvE_EEED2Ev(ptr noundef nonnull align 8 dereferenceable(40) %0) unnamed_addr #4 align 2 {
  %2 = alloca ptr, align 8
  store ptr %0, ptr %2, align 8
  %3 = load ptr, ptr %2, align 8
  %4 = getelementptr inbounds %"struct.std::thread::_Invoker", ptr %3, i32 0, i32 0
  call void @_ZNSt5tupleIJZN12_GLOBAL__N_14Impl23startProcessingMessagesERKSt8functionIFvvEEEUlvE_EED2Ev(ptr noundef nonnull align 8 dereferenceable(40) %4) #12
  ret void
}

; Function Attrs: mustprogress nounwind uwtable
define internal void @_ZNSt6thread11_State_implINS_8_InvokerISt5tupleIJZN12_GLOBAL__N_14Impl23startProcessingMessagesERKSt8functionIFvvEEEUlvE_EEEEED2Ev(ptr noundef nonnull align 8 dereferenceable(48) %0) unnamed_addr #4 align 2 {
  %2 = alloca ptr, align 8
  store ptr %0, ptr %2, align 8
  %3 = load ptr, ptr %2, align 8
  store ptr getelementptr inbounds ({ [5 x ptr] }, ptr @_ZTVNSt6thread11_State_implINS_8_InvokerISt5tupleIJZN12_GLOBAL__N_14Impl23startProcessingMessagesERKSt8functionIFvvEEEUlvE_EEEEEE, i32 0, i32 0, i32 2), ptr %3, align 8
  %4 = getelementptr inbounds %"struct.std::thread::_State_impl", ptr %3, i32 0, i32 1
  call void @_ZNSt6thread8_InvokerISt5tupleIJZN12_GLOBAL__N_14Impl23startProcessingMessagesERKSt8functionIFvvEEEUlvE_EEED2Ev(ptr noundef nonnull align 8 dereferenceable(40) %4) #12
  call void @_ZNSt6thread6_StateD2Ev(ptr noundef nonnull align 8 dereferenceable(8) %3) #12
  ret void
}

; Function Attrs: mustprogress nounwind uwtable
define internal void @_ZNSt6thread11_State_implINS_8_InvokerISt5tupleIJZN12_GLOBAL__N_14Impl23startProcessingMessagesERKSt8functionIFvvEEEUlvE_EEEEED0Ev(ptr noundef nonnull align 8 dereferenceable(48) %0) unnamed_addr #4 align 2 {
  %2 = alloca ptr, align 8
  store ptr %0, ptr %2, align 8
  %3 = load ptr, ptr %2, align 8
  call void @_ZNSt6thread11_State_implINS_8_InvokerISt5tupleIJZN12_GLOBAL__N_14Impl23startProcessingMessagesERKSt8functionIFvvEEEUlvE_EEEEED2Ev(ptr noundef nonnull align 8 dereferenceable(48) %3) #12
  call void @_ZdlPv(ptr noundef %3) #15
  ret void
}